target datalayout = "e-m:e-p270:32:32-p271:32:32-p272:64:64-i64:64-i128:128-f80:128-n8:16:32:64-S128"
target triple = "x86_64-pc-linux-gnu"

%struct.FT_BBox_ = type { i64, i64, i64, i64 }
%struct.CFF_FontRecDictRec_ = type { i32, i32, i32, i32, i32, i32, i8, i64, i64, i64, i32, i32, %struct.FT_Matrix_, i8, i64, %struct.FT_Vector_, i64, %struct.FT_BBox_, i64, i64, i64, i64, i64, i64, i64, i32, i32, i32, i64, i64, i64, i64, i64, i64, i64, i64, i32, i16, i16, i64, i32 }
%struct.FT_Matrix_ = type { i64, i64, i64, i64 }
%struct.FT_Vector_ = type { i64, i64 }
%struct.CFF_ParserRec_ = type { ptr, ptr, ptr, ptr, ptr, ptr, i32, i32, ptr, i16, i16 }

; Function Attrs: nounwind uwtable
define internal i32 @cff_parse_private_dict(ptr noundef %0) #0 {
  %2 = alloca ptr, align 8
  %3 = alloca ptr, align 8
  %4 = alloca ptr, align 8
  %5 = alloca i32, align 4
  %6 = alloca i64, align 8
  store ptr %0, ptr %2, align 8
  %7 = load ptr, ptr %2, align 8
  %8 = getelementptr inbounds %struct.CFF_ParserRec_, ptr %7, i32 0, i32 8
  %9 = load ptr, ptr %8, align 8
  store ptr %9, ptr %3, align 8
  %10 = load ptr, ptr %2, align 8
  %11 = getelementptr inbounds %struct.CFF_ParserRec_, ptr %10, i32 0, i32 4
  %12 = load ptr, ptr %11, align 8
  store ptr %12, ptr %4, align 8
  store i32 161, ptr %5, align 4
  %13 = load ptr, ptr %2, align 8
  %14 = getelementptr inbounds %struct.CFF_ParserRec_, ptr %13, i32 0, i32 5
  %15 = load ptr, ptr %14, align 8
  %16 = load ptr, ptr %2, align 8
  %17 = getelementptr inbounds %struct.CFF_ParserRec_, ptr %16, i32 0, i32 4
  %18 = load ptr, ptr %17, align 8
  %19 = getelementptr inbounds ptr, ptr %18, i64 2
  %20 = icmp uge ptr %15, %19
  br i1 %20, label %21, label %49

21:                                               ; preds = %1
  %22 = load ptr, ptr %2, align 8
  %23 = load ptr, ptr %4, align 8
  %24 = getelementptr inbounds ptr, ptr %23, i32 1
  store ptr %24, ptr %4, align 8
  %25 = call i64 @cff_parse_num(ptr noundef %22, ptr noundef %23)
  store i64 %25, ptr %6, align 8
  %26 = load i64, ptr %6, align 8
  %27 = icmp slt i64 %26, 0
  br i1 %27, label %28, label %31

28:                                               ; preds = %21
  br label %29

29:                                               ; preds = %28
  br label %30

30:                                               ; preds = %29
  store i32 3, ptr %5, align 4
  br label %50

31:                                               ; preds = %21
  %32 = load i64, ptr %6, align 8
  %33 = load ptr, ptr %3, align 8
  %34 = getelementptr inbounds %struct.CFF_FontRecDictRec_, ptr %33, i32 0, i32 23
  store i64 %32, ptr %34, align 8
  %35 = load ptr, ptr %2, align 8
  %36 = load ptr, ptr %4, align 8
  %37 = call i64 @cff_parse_num(ptr noundef %35, ptr noundef %36)
  store i64 %37, ptr %6, align 8
  %38 = load i64, ptr %6, align 8
  %39 = icmp slt i64 %38, 0
  br i1 %39, label %40, label %43

40:                                               ; preds = %31
  br label %41

41:                                               ; preds = %40
  br label %42

42:                                               ; preds = %41
  store i32 3, ptr %5, align 4
  br label %50

43:                                               ; preds = %31
  %44 = load i64, ptr %6, align 8
  %45 = load ptr, ptr %3, align 8
  %46 = getelementptr inbounds %struct.CFF_FontRecDictRec_, ptr %45, i32 0, i32 22
  store i64 %44, ptr %46, align 8
  br label %47

47:                                               ; preds = %43
  br label %48

48:                                               ; preds = %47
  store i32 0, ptr %5, align 4
  br label %49

49:                                               ; preds = %48, %1
  br label %50

50:                                               ; preds = %49, %42, %30
  %51 = load i32, ptr %5, align 4
  ret i32 %51
}