; Function Attrs: nounwind uwtable
define internal range(i32 0, 162) i32 @cff_parse_private_dict(ptr nocapture noundef readonly %0) #4 {
  %2 = getelementptr inbounds i8, ptr %0, i64 56
  %3 = load ptr, ptr %2, align 8
  %4 = getelementptr inbounds i8, ptr %0, i64 32
  %5 = load ptr, ptr %4, align 8
  %6 = getelementptr inbounds i8, ptr %0, i64 40
  %7 = load ptr, ptr %6, align 8
  %8 = getelementptr inbounds i8, ptr %5, i64 16
  %.not = icmp ult ptr %7, %8
  br i1 %.not, label %19, label %9

9:                                                ; preds = %1
  %.val16 = load ptr, ptr %5, align 8
  %10 = tail call fastcc i64 @cff_parse_num(ptr noundef nonnull %0, ptr %.val16)
  %11 = icmp slt i64 %10, 0
  br i1 %11, label %19, label %12

12:                                               ; preds = %9
  %13 = getelementptr inbounds i8, ptr %5, i64 8
  %14 = getelementptr inbounds i8, ptr %3, i64 208
  store i64 %10, ptr %14, align 8
  %.val = load ptr, ptr %13, align 8
  %15 = tail call fastcc i64 @cff_parse_num(ptr noundef nonnull %0, ptr %.val)
  %16 = icmp slt i64 %15, 0
  br i1 %16, label %19, label %17

17:                                               ; preds = %12
  %18 = getelementptr inbounds i8, ptr %3, i64 200
  store i64 %15, ptr %18, align 8
  br label %19

19:                                               ; preds = %12, %9, %1, %17
  %.0 = phi i32 [ 0, %17 ], [ 161, %1 ], [ 3, %9 ], [ 3, %12 ]
  ret i32 %.0
}